; Function Attrs: nounwind uwtable
define range(i32 -22, 1) i32 @ff_silk_init(ptr noundef %0, ptr noundef writeonly captures(none) %1, i32 noundef %2) local_unnamed_addr #0 {
  %4 = add i32 %2, -3
  %or.cond = icmp ult i32 %4, -2
  br i1 %or.cond, label %5, label %6

5:                                                ; preds = %3
  tail call void (ptr, i32, ptr, ...) @av_log(ptr noundef %0, i32 noundef 16, ptr noundef nonnull @.str.1, i32 noundef %2) #9
  br label %17

6:                                                ; preds = %3
  %7 = tail call noalias ptr @av_mallocz(i64 noundef 10592) #9
  %.not = icmp eq ptr %7, null
  br i1 %.not, label %17, label %8

8:                                                ; preds = %6
  store ptr %0, ptr %7, align 8, !tbaa !4
  %9 = getelementptr inbounds nuw i8, ptr %7, i64 8
  store i32 %2, ptr %9, align 8, !tbaa !26
  %10 = getelementptr inbounds nuw i8, ptr %7, i64 40
  %11 = load i32, ptr %10, align 4, !tbaa !16
  %.not.i.i = icmp eq i32 %11, 0
  br i1 %.not.i.i, label %silk_flush_frame.exit.i, label %12

12:                                               ; preds = %8
  tail call void @llvm.memset.p0.i64(ptr noundef nonnull align 4 dereferenceable(5264) %10, i8 0, i64 5264, i1 false)
  br label %silk_flush_frame.exit.i

silk_flush_frame.exit.i:                          ; preds = %12, %8
  %13 = getelementptr inbounds nuw i8, ptr %7, i64 5304
  %14 = load i32, ptr %13, align 4, !tbaa !16
  %.not.i3.i = icmp eq i32 %14, 0
  br i1 %.not.i3.i, label %ff_silk_flush.exit, label %15

15:                                               ; preds = %silk_flush_frame.exit.i
  tail call void @llvm.memset.p0.i64(ptr noundef nonnull align 4 dereferenceable(5264) %13, i8 0, i64 5264, i1 false)
  br label %ff_silk_flush.exit

ff_silk_flush.exit:                               ; preds = %silk_flush_frame.exit.i, %15
  %16 = getelementptr inbounds nuw i8, ptr %7, i64 10568
  store i64 0, ptr %16, align 8
  store ptr %7, ptr %1, align 8, !tbaa !85
  br label %17

17:                                               ; preds = %6, %ff_silk_flush.exit, %5
  %.0 = phi i32 [ -22, %5 ], [ 0, %ff_silk_flush.exit ], [ -12, %6 ]
  ret i32 %.0
}